target datalayout = "e-m:e-p270:32:32-p271:32:32-p272:64:64-i64:64-i128:128-f80:128-n8:16:32:64-S128"
target triple = "x86_64-pc-linux-gnu"

; Function Attrs: mustprogress nounwind uwtable
define linkonce_odr noundef double @_ZSt3absd(double noundef %0) #1 comdat {
  %2 = alloca double, align 8
  store double %0, ptr %2, align 8
  %3 = load double, ptr %2, align 8
  %4 = call double @llvm.fabs.f64(double %3)
  ret double %4
}

; Function Attrs: mustprogress nounwind uwtable
define linkonce_odr noundef nonnull align 8 dereferenceable(8) ptr @_ZSt3maxIdERKT_S2_S2_(ptr noundef nonnull align 8 dereferenceable(8) %0, ptr noundef nonnull align 8 dereferenceable(8) %1) #1 comdat {
  %3 = alloca ptr, align 8
  %4 = alloca ptr, align 8
  %5 = alloca ptr, align 8
  store ptr %0, ptr %4, align 8
  store ptr %1, ptr %5, align 8
  %6 = load ptr, ptr %4, align 8
  %7 = load double, ptr %6, align 8
  %8 = load ptr, ptr %5, align 8
  %9 = load double, ptr %8, align 8
  %10 = fcmp olt double %7, %9
  br i1 %10, label %11, label %13

11:                                               ; preds = %2
  %12 = load ptr, ptr %5, align 8
  store ptr %12, ptr %3, align 8
  br label %15

13:                                               ; preds = %2
  %14 = load ptr, ptr %4, align 8
  store ptr %14, ptr %3, align 8
  br label %15

15:                                               ; preds = %13, %11
  %16 = load ptr, ptr %3, align 8
  ret ptr %16
}

; Function Attrs: mustprogress nounwind uwtable
define internal noundef double @_ZN2cvL7normInfIddEET0_PKT_S4_i(ptr noundef %0, ptr noundef %1, i32 noundef %2) #1 {
  %4 = alloca ptr, align 8
  %5 = alloca ptr, align 8
  %6 = alloca i32, align 4
  %7 = alloca double, align 8
  %8 = alloca i32, align 4
  %9 = alloca double, align 8
  %10 = alloca double, align 8
  store ptr %0, ptr %4, align 8
  store ptr %1, ptr %5, align 8
  store i32 %2, ptr %6, align 4
  store double 0.000000e+00, ptr %7, align 8
  store i32 0, ptr %8, align 4
  br label %11

11:                                               ; preds = %31, %3
  %12 = load i32, ptr %8, align 4
  %13 = load i32, ptr %6, align 4
  %14 = icmp slt i32 %12, %13
  br i1 %14, label %15, label %34

15:                                               ; preds = %11
  %16 = load ptr, ptr %4, align 8
  %17 = load i32, ptr %8, align 4
  %18 = sext i32 %17 to i64
  %19 = getelementptr inbounds double, ptr %16, i64 %18
  %20 = load double, ptr %19, align 8
  %21 = load ptr, ptr %5, align 8
  %22 = load i32, ptr %8, align 4
  %23 = sext i32 %22 to i64
  %24 = getelementptr inbounds double, ptr %21, i64 %23
  %25 = load double, ptr %24, align 8
  %26 = fsub double %20, %25
  store double %26, ptr %9, align 8
  %27 = load double, ptr %9, align 8
  %28 = call noundef double @_ZSt3absd(double noundef %27)
  store double %28, ptr %10, align 8
  %29 = call noundef nonnull align 8 dereferenceable(8) ptr @_ZSt3maxIdERKT_S2_S2_(ptr noundef nonnull align 8 dereferenceable(8) %7, ptr noundef nonnull align 8 dereferenceable(8) %10)
  %30 = load double, ptr %29, align 8
  store double %30, ptr %7, align 8
  br label %31

31:                                               ; preds = %15
  %32 = load i32, ptr %8, align 4
  %33 = add nsw i32 %32, 1
  store i32 %33, ptr %8, align 4
  br label %11, !llvm.loop !111

34:                                               ; preds = %11
  %35 = load double, ptr %7, align 8
  ret double %35
}

; Function Attrs: mustprogress uwtable
define linkonce_odr hidden noundef i32 @_ZN2cv12normDiffInf_IddEEiPKT_S3_PKhPT0_ii(ptr noundef %0, ptr noundef %1, ptr noundef %2, ptr noundef %3, i32 noundef %4, i32 noundef %5) #0 comdat {
  %7 = alloca ptr, align 8
  %8 = alloca ptr, align 8
  %9 = alloca ptr, align 8
  %10 = alloca ptr, align 8
  %11 = alloca i32, align 4
  %12 = alloca i32, align 4
  %13 = alloca double, align 8
  %14 = alloca double, align 8
  %15 = alloca i32, align 4
  %16 = alloca i32, align 4
  %17 = alloca double, align 8
  store ptr %0, ptr %7, align 8
  store ptr %1, ptr %8, align 8
  store ptr %2, ptr %9, align 8
  store ptr %3, ptr %10, align 8
  store i32 %4, ptr %11, align 4
  store i32 %5, ptr %12, align 4
  %18 = load ptr, ptr %10, align 8
  %19 = load double, ptr %18, align 8
  store double %19, ptr %13, align 8
  %20 = load ptr, ptr %9, align 8
  %21 = icmp ne ptr %20, null
  br i1 %21, label %31, label %22

22:                                               ; preds = %6
  %23 = load ptr, ptr %7, align 8
  %24 = load ptr, ptr %8, align 8
  %25 = load i32, ptr %11, align 4
  %26 = load i32, ptr %12, align 4
  %27 = mul nsw i32 %25, %26
  %28 = call noundef double @_ZN2cvL7normInfIddEET0_PKT_S4_i(ptr noundef %23, ptr noundef %24, i32 noundef %27)
  store double %28, ptr %14, align 8
  %29 = call noundef nonnull align 8 dereferenceable(8) ptr @_ZSt3maxIdERKT_S2_S2_(ptr noundef nonnull align 8 dereferenceable(8) %13, ptr noundef nonnull align 8 dereferenceable(8) %14)
  %30 = load double, ptr %29, align 8
  store double %30, ptr %13, align 8
  br label %80

31:                                               ; preds = %6
  store i32 0, ptr %15, align 4
  br label %32

32:                                               ; preds = %68, %31
  %33 = load i32, ptr %15, align 4
  %34 = load i32, ptr %11, align 4
  %35 = icmp slt i32 %33, %34
  br i1 %35, label %36, label %79

36:                                               ; preds = %32
  %37 = load ptr, ptr %9, align 8
  %38 = load i32, ptr %15, align 4
  %39 = sext i32 %38 to i64
  %40 = getelementptr inbounds i8, ptr %37, i64 %39
  %41 = load i8, ptr %40, align 1
  %42 = icmp ne i8 %41, 0
  br i1 %42, label %43, label %67

43:                                               ; preds = %36
  store i32 0, ptr %16, align 4
  br label %44

44:                                               ; preds = %63, %43
  %45 = load i32, ptr %16, align 4
  %46 = load i32, ptr %12, align 4
  %47 = icmp slt i32 %45, %46
  br i1 %47, label %48, label %66

48:                                               ; preds = %44
  %49 = load ptr, ptr %7, align 8
  %50 = load i32, ptr %16, align 4
  %51 = sext i32 %50 to i64
  %52 = getelementptr inbounds double, ptr %49, i64 %51
  %53 = load double, ptr %52, align 8
  %54 = load ptr, ptr %8, align 8
  %55 = load i32, ptr %16, align 4
  %56 = sext i32 %55 to i64
  %57 = getelementptr inbounds double, ptr %54, i64 %56
  %58 = load double, ptr %57, align 8
  %59 = fsub double %53, %58
  %60 = call noundef double @_ZSt3absd(double noundef %59)
  store double %60, ptr %17, align 8
  %61 = call noundef nonnull align 8 dereferenceable(8) ptr @_ZSt3maxIdERKT_S2_S2_(ptr noundef nonnull align 8 dereferenceable(8) %13, ptr noundef nonnull align 8 dereferenceable(8) %17)
  %62 = load double, ptr %61, align 8
  store double %62, ptr %13, align 8
  br label %63

63:                                               ; preds = %48
  %64 = load i32, ptr %16, align 4
  %65 = add nsw i32 %64, 1
  store i32 %65, ptr %16, align 4
  br label %44, !llvm.loop !109

66:                                               ; preds = %44
  br label %67

67:                                               ; preds = %66, %36
  br label %68

68:                                               ; preds = %67
  %69 = load i32, ptr %15, align 4
  %70 = add nsw i32 %69, 1
  store i32 %70, ptr %15, align 4
  %71 = load i32, ptr %12, align 4
  %72 = load ptr, ptr %7, align 8
  %73 = sext i32 %71 to i64
  %74 = getelementptr inbounds double, ptr %72, i64 %73
  store ptr %74, ptr %7, align 8
  %75 = load i32, ptr %12, align 4
  %76 = load ptr, ptr %8, align 8
  %77 = sext i32 %75 to i64
  %78 = getelementptr inbounds double, ptr %76, i64 %77
  store ptr %78, ptr %8, align 8
  br label %32, !llvm.loop !110

79:                                               ; preds = %32
  br label %80

80:                                               ; preds = %79, %22
  %81 = load double, ptr %13, align 8
  %82 = load ptr, ptr %10, align 8
  store double %81, ptr %82, align 8
  ret i32 0
}

; Function Attrs: mustprogress uwtable
define internal noundef i32 @_ZN2cvL15normDiffInf_64fEPKdS1_PKhPdii(ptr noundef %0, ptr noundef %1, ptr noundef %2, ptr noundef %3, i32 noundef %4, i32 noundef %5) #0 {
  %7 = alloca ptr, align 8
  %8 = alloca ptr, align 8
  %9 = alloca ptr, align 8
  %10 = alloca ptr, align 8
  %11 = alloca i32, align 4
  %12 = alloca i32, align 4
  store ptr %0, ptr %7, align 8
  store ptr %1, ptr %8, align 8
  store ptr %2, ptr %9, align 8
  store ptr %3, ptr %10, align 8
  store i32 %4, ptr %11, align 4
  store i32 %5, ptr %12, align 4
  %13 = load ptr, ptr %7, align 8
  %14 = load ptr, ptr %8, align 8
  %15 = load ptr, ptr %9, align 8
  %16 = load ptr, ptr %10, align 8
  %17 = load i32, ptr %11, align 4
  %18 = load i32, ptr %12, align 4
  %19 = call noundef i32 @_ZN2cv12normDiffInf_IddEEiPKT_S3_PKhPT0_ii(ptr noundef %13, ptr noundef %14, ptr noundef %15, ptr noundef %16, i32 noundef %17, i32 noundef %18)
  ret i32 %19
}