; Function Attrs: mustprogress nofree norecurse nosync nounwind memory(argmem: readwrite) uwtable
define internal noundef i32 @_ZN2cvL15normDiffInf_64fEPKdS1_PKhPdii(ptr noundef readonly captures(none) %0, ptr noundef readonly captures(none) %1, ptr noundef readonly %2, ptr noundef captures(none) %3, i32 noundef %4, i32 noundef %5) #6 {
  %7 = load double, ptr %3, align 8
  %.not.i = icmp eq ptr %2, null
  br i1 %.not.i, label %22, label %.preheader35.i

.preheader35.i:                                   ; preds = %6
  %8 = icmp sgt i32 %4, 0
  br i1 %8, label %.lr.ph43.i, label %_ZN2cv12normDiffInf_IddEEiPKT_S3_PKhPT0_ii.exit

.lr.ph43.i:                                       ; preds = %.preheader35.i
  %9 = icmp sgt i32 %5, 0
  %10 = sext i32 %5 to i64
  br i1 %9, label %.lr.ph43.split.us.preheader.i, label %_ZN2cv12normDiffInf_IddEEiPKT_S3_PKhPT0_ii.exit

.lr.ph43.split.us.preheader.i:                    ; preds = %.lr.ph43.i
  %wide.trip.count50.i = zext nneg i32 %4 to i64
  %wide.trip.count.i = zext nneg i32 %5 to i64
  br label %.lr.ph43.split.us.i

.lr.ph43.split.us.i:                              ; preds = %..loopexit_crit_edge.us.i, %.lr.ph43.split.us.preheader.i
  %indvars.iv47.i = phi i64 [ 0, %.lr.ph43.split.us.preheader.i ], [ %indvars.iv.next48.i, %..loopexit_crit_edge.us.i ]
  %.02341.us.i = phi ptr [ %0, %.lr.ph43.split.us.preheader.i ], [ %20, %..loopexit_crit_edge.us.i ]
  %.02440.us.i = phi ptr [ %1, %.lr.ph43.split.us.preheader.i ], [ %21, %..loopexit_crit_edge.us.i ]
  %.139.us.i = phi double [ %7, %.lr.ph43.split.us.preheader.i ], [ %.3.us.i, %..loopexit_crit_edge.us.i ]
  %11 = getelementptr inbounds nuw i8, ptr %2, i64 %indvars.iv47.i
  %12 = load i8, ptr %11, align 1
  %.not26.us.i = icmp eq i8 %12, 0
  br i1 %.not26.us.i, label %..loopexit_crit_edge.us.i, label %.preheader.us.i

.preheader.us.i:                                  ; preds = %.lr.ph43.split.us.i, %.preheader.us.i
  %indvars.iv.i = phi i64 [ %indvars.iv.next.i, %.preheader.us.i ], [ 0, %.lr.ph43.split.us.i ]
  %.237.us.i = phi double [ %.sroa.speculated.us.i, %.preheader.us.i ], [ %.139.us.i, %.lr.ph43.split.us.i ]
  %13 = getelementptr inbounds nuw double, ptr %.02341.us.i, i64 %indvars.iv.i
  %14 = load double, ptr %13, align 8
  %15 = getelementptr inbounds nuw double, ptr %.02440.us.i, i64 %indvars.iv.i
  %16 = load double, ptr %15, align 8
  %17 = fsub double %14, %16
  %18 = tail call noundef double @llvm.fabs.f64(double %17)
  %19 = fcmp olt double %.237.us.i, %18
  %.sroa.speculated.us.i = select i1 %19, double %18, double %.237.us.i
  %indvars.iv.next.i = add nuw nsw i64 %indvars.iv.i, 1
  %exitcond.not.i = icmp eq i64 %indvars.iv.next.i, %wide.trip.count.i
  br i1 %exitcond.not.i, label %..loopexit_crit_edge.us.i, label %.preheader.us.i, !llvm.loop !127

..loopexit_crit_edge.us.i:                        ; preds = %.preheader.us.i, %.lr.ph43.split.us.i
  %.3.us.i = phi double [ %.139.us.i, %.lr.ph43.split.us.i ], [ %.sroa.speculated.us.i, %.preheader.us.i ]
  %indvars.iv.next48.i = add nuw nsw i64 %indvars.iv47.i, 1
  %20 = getelementptr inbounds nuw double, ptr %.02341.us.i, i64 %10
  %21 = getelementptr inbounds nuw double, ptr %.02440.us.i, i64 %10
  %exitcond51.not.i = icmp eq i64 %indvars.iv.next48.i, %wide.trip.count50.i
  br i1 %exitcond51.not.i, label %_ZN2cv12normDiffInf_IddEEiPKT_S3_PKhPT0_ii.exit, label %.lr.ph43.split.us.i, !llvm.loop !128

22:                                               ; preds = %6
  %23 = mul nsw i32 %5, %4
  %24 = icmp sgt i32 %23, 0
  br i1 %24, label %.lr.ph.preheader.i.i, label %_ZN2cvL7normInfIddEET0_PKT_S4_i.exit.i

.lr.ph.preheader.i.i:                             ; preds = %22
  %wide.trip.count.i.i = zext nneg i32 %23 to i64
  br label %.lr.ph.i.i

.lr.ph.i.i:                                       ; preds = %.lr.ph.i.i, %.lr.ph.preheader.i.i
  %indvars.iv.i.i = phi i64 [ 0, %.lr.ph.preheader.i.i ], [ %indvars.iv.next.i.i, %.lr.ph.i.i ]
  %.089.i.i = phi double [ 0.000000e+00, %.lr.ph.preheader.i.i ], [ %.sroa.speculated.i.i, %.lr.ph.i.i ]
  %25 = getelementptr inbounds nuw double, ptr %0, i64 %indvars.iv.i.i
  %26 = load double, ptr %25, align 8
  %27 = getelementptr inbounds nuw double, ptr %1, i64 %indvars.iv.i.i
  %28 = load double, ptr %27, align 8
  %29 = fsub double %26, %28
  %30 = tail call noundef double @llvm.fabs.f64(double %29)
  %31 = fcmp olt double %.089.i.i, %30
  %.sroa.speculated.i.i = select i1 %31, double %30, double %.089.i.i
  %indvars.iv.next.i.i = add nuw nsw i64 %indvars.iv.i.i, 1
  %exitcond.not.i.i = icmp eq i64 %indvars.iv.next.i.i, %wide.trip.count.i.i
  br i1 %exitcond.not.i.i, label %_ZN2cvL7normInfIddEET0_PKT_S4_i.exit.i, label %.lr.ph.i.i, !llvm.loop !129

_ZN2cvL7normInfIddEET0_PKT_S4_i.exit.i:           ; preds = %.lr.ph.i.i, %22
  %.08.lcssa.i.i = phi double [ 0.000000e+00, %22 ], [ %.sroa.speculated.i.i, %.lr.ph.i.i ]
  %32 = fcmp olt double %7, %.08.lcssa.i.i
  %.sroa.speculated29.i = select i1 %32, double %.08.lcssa.i.i, double %7
  br label %_ZN2cv12normDiffInf_IddEEiPKT_S3_PKhPT0_ii.exit

_ZN2cv12normDiffInf_IddEEiPKT_S3_PKhPT0_ii.exit:  ; preds = %..loopexit_crit_edge.us.i, %.preheader35.i, %.lr.ph43.i, %_ZN2cvL7normInfIddEET0_PKT_S4_i.exit.i
  %.034.i = phi double [ %.sroa.speculated29.i, %_ZN2cvL7normInfIddEET0_PKT_S4_i.exit.i ], [ %7, %.preheader35.i ], [ %7, %.lr.ph43.i ], [ %.3.us.i, %..loopexit_crit_edge.us.i ]
  store double %.034.i, ptr %3, align 8
  ret i32 0
}